(dp1
S'saved_by_info'
p2
(dp3
sS'tags'
p4
(dp5
Vmca05.nirmauni
p6
(lp7
I0
asS'pub'
p8
(lp9
I1
assS'id_number'
p10
I24
sS'pretty_print'
p11
I00
sS'system'
p12
S'sage'
p13
sS'published_id_number'
p14
NsS'owner'
p15
g8
sS'viewers'
p16
(lp17
sS'ratings'
p18
(lp19
sS'collaborators'
p20
(lp21
sS'name'
p22
VEntity Relationship Model
p23
sS'auto_publish'
p24
I00
sS'last_change'
p25
(g6
F1393226224.7355111
tp26
sS'worksheet_that_was_published'
p27
(Vmca05.nirmauni
p28
I0
tp29
s.